target datalayout = "e-m:e-p270:32:32-p271:32:32-p272:64:64-i64:64-i128:128-f80:128-n8:16:32:64-S128"
target triple = "x86_64-pc-linux-gnu"

%struct.llama_data_write = type { ptr }
%struct.llama_data_write_buffer = type { %struct.llama_data_write, ptr, i64, i64 }

@_ZTISt9exception = external constant ptr
@.str.37 = private unnamed_addr constant [37 x i8] c"%s: error saving sequence state: %s\0A\00", align 1
@__func__.llama_state_seq_get_data = private unnamed_addr constant [25 x i8] c"llama_state_seq_get_data\00", align 1
@_ZTV16llama_data_write = linkonce_odr unnamed_addr constant { [7 x ptr] } { [7 x ptr] [ptr null, ptr @_ZTI16llama_data_write, ptr @__cxa_pure_virtual, ptr @__cxa_pure_virtual, ptr @__cxa_pure_virtual, ptr @_ZN16llama_data_writeD2Ev, ptr @_ZN16llama_data_writeD0Ev] }, comdat, align 8

; Function Attrs: inlinehint mustprogress nounwind uwtable
define linkonce_odr void @_ZN16llama_data_writeC2Ev(ptr noundef nonnull align 8 dereferenceable(8) %0) unnamed_addr #7 comdat align 2 {
  %2 = alloca ptr, align 8
  store ptr %0, ptr %2, align 8, !tbaa !393
  %3 = load ptr, ptr %2, align 8
  store ptr getelementptr inbounds inrange(-16, 40) ({ [7 x ptr] }, ptr @_ZTV16llama_data_write, i32 0, i32 0, i32 2), ptr %3, align 8, !tbaa !375
  ret void
}

; Function Attrs: mustprogress nounwind uwtable
define linkonce_odr void @_ZN16llama_data_writeD2Ev(ptr noundef nonnull align 8 dereferenceable(8) %0) unnamed_addr #0 comdat align 2 {
  %2 = alloca ptr, align 8
  store ptr %0, ptr %2, align 8, !tbaa !393
  ret void
}

; Function Attrs: mustprogress uwtable
define internal noundef i64 @_ZL33llama_state_seq_get_data_internalP13llama_contextR16llama_data_writei(ptr noundef %0, ptr noundef nonnull align 8 dereferenceable(8) %1, i32 noundef %2) #2 {
  %4 = alloca ptr, align 8
  %5 = alloca ptr, align 8
  %6 = alloca i32, align 4
  store ptr %0, ptr %4, align 8, !tbaa !3
  store ptr %1, ptr %5, align 8, !tbaa !393
  store i32 %2, ptr %6, align 4, !tbaa !130
  %7 = load ptr, ptr %4, align 8, !tbaa !3
  call void @llama_synchronize(ptr noundef %7)
  %8 = load ptr, ptr %5, align 8, !tbaa !393
  %9 = load ptr, ptr %4, align 8, !tbaa !3
  %10 = load i32, ptr %6, align 4, !tbaa !130
  call void @_ZN16llama_data_write14write_kv_cacheEPK13llama_contexti(ptr noundef nonnull align 8 dereferenceable(8) %8, ptr noundef %9, i32 noundef %10)
  %11 = load ptr, ptr %5, align 8, !tbaa !393
  %12 = load ptr, ptr %11, align 8, !tbaa !375
  %13 = getelementptr inbounds ptr, ptr %12, i64 2
  %14 = load ptr, ptr %13, align 8
  %15 = call noundef i64 %14(ptr noundef nonnull align 8 dereferenceable(8) %11)
  ret i64 %15
}

; Function Attrs: mustprogress nounwind uwtable
define linkonce_odr void @_ZN23llama_data_write_bufferC2EPhm(ptr noundef nonnull align 8 dereferenceable(32) %0, ptr noundef %1, i64 noundef %2) unnamed_addr #0 comdat align 2 {
  %4 = alloca ptr, align 8
  %5 = alloca ptr, align 8
  %6 = alloca i64, align 8
  store ptr %0, ptr %4, align 8, !tbaa !386
  store ptr %1, ptr %5, align 8, !tbaa !385
  store i64 %2, ptr %6, align 8, !tbaa !124
  %7 = load ptr, ptr %4, align 8
  call void @_ZN16llama_data_writeC2Ev(ptr noundef nonnull align 8 dereferenceable(8) %7) #19
  store ptr getelementptr inbounds inrange(-16, 40) ({ [7 x ptr] }, ptr @_ZTV23llama_data_write_buffer, i32 0, i32 0, i32 2), ptr %7, align 8, !tbaa !375
  %8 = getelementptr inbounds nuw %struct.llama_data_write_buffer, ptr %7, i32 0, i32 1
  %9 = load ptr, ptr %5, align 8, !tbaa !385
  store ptr %9, ptr %8, align 8, !tbaa !388
  %10 = getelementptr inbounds nuw %struct.llama_data_write_buffer, ptr %7, i32 0, i32 2
  %11 = load i64, ptr %6, align 8, !tbaa !124
  store i64 %11, ptr %10, align 8, !tbaa !391
  %12 = getelementptr inbounds nuw %struct.llama_data_write_buffer, ptr %7, i32 0, i32 3
  store i64 0, ptr %12, align 8, !tbaa !392
  ret void
}

; Function Attrs: mustprogress uwtable
define i64 @llama_state_seq_get_data(ptr noundef %0, ptr noundef %1, i64 noundef %2, i32 noundef %3) #2 personality ptr @__gxx_personality_v0 {
  %5 = alloca i64, align 8
  %6 = alloca ptr, align 8
  %7 = alloca ptr, align 8
  %8 = alloca i64, align 8
  %9 = alloca i32, align 4
  %10 = alloca %struct.llama_data_write_buffer, align 8
  %11 = alloca ptr, align 8
  %12 = alloca i32, align 4
  %13 = alloca i32, align 4
  %14 = alloca ptr, align 8
  store ptr %0, ptr %6, align 8, !tbaa !3
  store ptr %1, ptr %7, align 8, !tbaa !385
  store i64 %2, ptr %8, align 8, !tbaa !124
  store i32 %3, ptr %9, align 4, !tbaa !130
  call void @llvm.lifetime.start.p0(i64 32, ptr %10) #19
  %15 = load ptr, ptr %7, align 8, !tbaa !385
  %16 = load i64, ptr %8, align 8, !tbaa !124
  call void @_ZN23llama_data_write_bufferC2EPhm(ptr noundef nonnull align 8 dereferenceable(32) %10, ptr noundef %15, i64 noundef %16)
  %17 = load ptr, ptr %6, align 8, !tbaa !3
  %18 = load i32, ptr %9, align 4, !tbaa !130
  %19 = invoke noundef i64 @_ZL33llama_state_seq_get_data_internalP13llama_contextR16llama_data_writei(ptr noundef %17, ptr noundef nonnull align 8 dereferenceable(8) %10, i32 noundef %18)
          to label %20 unwind label %21

20:                                               ; preds = %4
  store i64 %19, ptr %5, align 8
  store i32 1, ptr %13, align 4
  br label %50

21:                                               ; preds = %4
  %22 = landingpad { ptr, i32 }
          cleanup
          catch ptr @_ZTISt9exception
  %23 = extractvalue { ptr, i32 } %22, 0
  store ptr %23, ptr %11, align 8
  %24 = extractvalue { ptr, i32 } %22, 1
  store i32 %24, ptr %12, align 4
  br label %25

25:                                               ; preds = %21
  %26 = load i32, ptr %12, align 4
  %27 = call i32 @llvm.eh.typeid.for.p0(ptr @_ZTISt9exception) #19
  %28 = icmp eq i32 %26, %27
  br i1 %28, label %29, label %52

29:                                               ; preds = %25
  call void @llvm.lifetime.start.p0(i64 8, ptr %14) #19
  %30 = load ptr, ptr %11, align 8
  %31 = call ptr @__cxa_begin_catch(ptr %30) #19
  store ptr %31, ptr %14, align 8
  %32 = load ptr, ptr %14, align 8, !tbaa !373
  %33 = load ptr, ptr %32, align 8, !tbaa !375
  %34 = getelementptr inbounds ptr, ptr %33, i64 2
  %35 = load ptr, ptr %34, align 8
  %36 = call noundef ptr %35(ptr noundef nonnull align 8 dereferenceable(8) %32) #19
  invoke void (i32, ptr, ...) @_Z18llama_log_internal14ggml_log_levelPKcz(i32 noundef 4, ptr noundef @.str.37, ptr noundef @__func__.llama_state_seq_get_data, ptr noundef %36)
          to label %37 unwind label %38

37:                                               ; preds = %29
  store i64 0, ptr %5, align 8
  store i32 1, ptr %13, align 4
  invoke void @__cxa_end_catch()
          to label %42 unwind label %43

38:                                               ; preds = %29
  %39 = landingpad { ptr, i32 }
          cleanup
  %40 = extractvalue { ptr, i32 } %39, 0
  store ptr %40, ptr %11, align 8
  %41 = extractvalue { ptr, i32 } %39, 1
  store i32 %41, ptr %12, align 4
  invoke void @__cxa_end_catch()
          to label %47 unwind label %58

42:                                               ; preds = %37
  call void @llvm.lifetime.end.p0(i64 8, ptr %14) #19
  br label %50

43:                                               ; preds = %37
  %44 = landingpad { ptr, i32 }
          cleanup
  %45 = extractvalue { ptr, i32 } %44, 0
  store ptr %45, ptr %11, align 8
  %46 = extractvalue { ptr, i32 } %44, 1
  store i32 %46, ptr %12, align 4
  br label %48

47:                                               ; preds = %38
  br label %48

48:                                               ; preds = %47, %43
  call void @llvm.lifetime.end.p0(i64 8, ptr %14) #19
  br label %52

49:                                               ; No predecessors!
  unreachable

50:                                               ; preds = %42, %20
  call void @_ZN16llama_data_writeD2Ev(ptr noundef nonnull align 8 dereferenceable(32) %10) #19
  call void @llvm.lifetime.end.p0(i64 32, ptr %10) #19
  %51 = load i64, ptr %5, align 8
  ret i64 %51

52:                                               ; preds = %48, %25
  call void @_ZN16llama_data_writeD2Ev(ptr noundef nonnull align 8 dereferenceable(32) %10) #19
  call void @llvm.lifetime.end.p0(i64 32, ptr %10) #19
  br label %53

53:                                               ; preds = %52
  %54 = load ptr, ptr %11, align 8
  %55 = load i32, ptr %12, align 4
  %56 = insertvalue { ptr, i32 } poison, ptr %54, 0
  %57 = insertvalue { ptr, i32 } %56, i32 %55, 1
  resume { ptr, i32 } %57

58:                                               ; preds = %38
  %59 = landingpad { ptr, i32 }
          catch ptr null
  %60 = extractvalue { ptr, i32 } %59, 0
  call void @__clang_call_terminate(ptr %60) #21
  unreachable
}