; Function Attrs: mustprogress uwtable
define noundef i64 @llama_state_seq_get_data(ptr noundef %0, ptr noundef %1, i64 noundef %2, i32 noundef %3) local_unnamed_addr #2 personality ptr @__gxx_personality_v0 {
  %5 = alloca %struct.llama_data_write_buffer, align 8
  call void @llvm.lifetime.start.p0(i64 32, ptr nonnull %5) #29
  store ptr getelementptr inbounds nuw inrange(-16, 40) (i8, ptr @_ZTV23llama_data_write_buffer, i64 16), ptr %5, align 8, !tbaa !336
  %6 = getelementptr inbounds nuw i8, ptr %5, i64 8
  store ptr %1, ptr %6, align 8, !tbaa !342
  %7 = getelementptr inbounds nuw i8, ptr %5, i64 16
  store i64 %2, ptr %7, align 8, !tbaa !344
  %8 = getelementptr inbounds nuw i8, ptr %5, i64 24
  store i64 0, ptr %8, align 8, !tbaa !345
  invoke void @llama_synchronize(ptr noundef %0)
          to label %.noexc unwind label %13

.noexc:                                           ; preds = %4
  invoke void @_ZN16llama_data_write14write_kv_cacheEPK13llama_contexti(ptr noundef nonnull align 8 dereferenceable(8) %5, ptr noundef %0, i32 noundef %3)
          to label %.noexc14 unwind label %13

.noexc14:                                         ; preds = %.noexc
  %9 = load ptr, ptr %5, align 8, !tbaa !336
  %10 = getelementptr inbounds nuw i8, ptr %9, i64 16
  %11 = load ptr, ptr %10, align 8
  %12 = invoke noundef i64 %11(ptr noundef nonnull align 8 dereferenceable(8) %5)
          to label %_ZL33llama_state_seq_get_data_internalP13llama_contextR16llama_data_writei.exit unwind label %13

13:                                               ; preds = %.noexc14, %.noexc, %4
  %14 = landingpad { ptr, i32 }
          cleanup
          catch ptr @_ZTISt9exception
  %15 = extractvalue { ptr, i32 } %14, 1
  %16 = call i32 @llvm.eh.typeid.for.p0(ptr nonnull @_ZTISt9exception) #29
  %17 = icmp eq i32 %15, %16
  br i1 %17, label %18, label %28

18:                                               ; preds = %13
  %19 = extractvalue { ptr, i32 } %14, 0
  %20 = call ptr @__cxa_begin_catch(ptr %19) #29
  %21 = load ptr, ptr %20, align 8, !tbaa !336
  %22 = getelementptr inbounds nuw i8, ptr %21, i64 16
  %23 = load ptr, ptr %22, align 8
  %24 = call noundef ptr %23(ptr noundef nonnull align 8 dereferenceable(8) %20) #29
  invoke void (i32, ptr, ...) @_Z18llama_log_internal14ggml_log_levelPKcz(i32 noundef 4, ptr noundef nonnull @.str.37, ptr noundef nonnull @__func__.llama_state_seq_get_data, ptr noundef %24)
          to label %25 unwind label %26

25:                                               ; preds = %18
  call void @__cxa_end_catch()
  br label %_ZL33llama_state_seq_get_data_internalP13llama_contextR16llama_data_writei.exit

26:                                               ; preds = %18
  %27 = landingpad { ptr, i32 }
          cleanup
  invoke void @__cxa_end_catch()
          to label %28 unwind label %29

_ZL33llama_state_seq_get_data_internalP13llama_contextR16llama_data_writei.exit: ; preds = %25, %.noexc14
  %.0 = phi i64 [ 0, %25 ], [ %12, %.noexc14 ]
  call void @llvm.lifetime.end.p0(i64 32, ptr nonnull %5) #29
  ret i64 %.0

28:                                               ; preds = %26, %13
  %.merged = phi { ptr, i32 } [ %14, %13 ], [ %27, %26 ]
  call void @llvm.lifetime.end.p0(i64 32, ptr nonnull %5) #29
  resume { ptr, i32 } %.merged

29:                                               ; preds = %26
  %30 = landingpad { ptr, i32 }
          catch ptr null
  %31 = extractvalue { ptr, i32 } %30, 0
  call void @__clang_call_terminate(ptr %31) #30
  unreachable
}